target datalayout = "e-m:e-p270:32:32-p271:32:32-p272:64:64-i64:64-i128:128-f80:128-n8:16:32:64-S128"
target triple = "x86_64-unknown-linux-gnu"

%"struct.icu_75::(anonymous namespace)::IntPropertyContext" = type { i32, i32 }

; Function Attrs: mustprogress uwtable
define internal noundef signext i8 @_ZN6icu_7512_GLOBAL__N_117intPropertyFilterEiPv(i32 noundef %ch, ptr noundef %context) #1 {
entry:
  %ch.addr = alloca i32, align 4
  %context.addr = alloca ptr, align 8
  %c = alloca ptr, align 8
  store i32 %ch, ptr %ch.addr, align 4
  store ptr %context, ptr %context.addr, align 8
  %0 = load ptr, ptr %context.addr, align 8
  store ptr %0, ptr %c, align 8
  %1 = load i32, ptr %ch.addr, align 4
  %2 = load ptr, ptr %c, align 8
  %prop = getelementptr inbounds %"struct.icu_75::(anonymous namespace)::IntPropertyContext", ptr %2, i32 0, i32 0
  %3 = load i32, ptr %prop, align 4
  %call = call i32 @u_getIntPropertyValue_75(i32 noundef %1, i32 noundef %3)
  %4 = load ptr, ptr %c, align 8
  %value = getelementptr inbounds %"struct.icu_75::(anonymous namespace)::IntPropertyContext", ptr %4, i32 0, i32 1
  %5 = load i32, ptr %value, align 4
  %cmp = icmp eq i32 %call, %5
  %conv = zext i1 %cmp to i8
  ret i8 %conv
}