; Function Attrs: mustprogress uwtable
define internal noundef signext i8 @_ZN6icu_7512_GLOBAL__N_117intPropertyFilterEiPv(i32 noundef %ch, ptr nocapture noundef readonly %context) #1 {
entry:
  %0 = load i32, ptr %context, align 4
  %call = tail call i32 @u_getIntPropertyValue_75(i32 noundef %ch, i32 noundef %0)
  %value = getelementptr inbounds i8, ptr %context, i64 4
  %1 = load i32, ptr %value, align 4
  %cmp = icmp eq i32 %call, %1
  %conv = zext i1 %cmp to i8
  ret i8 %conv
}